target datalayout = "e-m:e-p270:32:32-p271:32:32-p272:64:64-i64:64-i128:128-f80:128-n8:16:32:64-S128"
target triple = "x86_64-pc-linux-gnu"

; Function Attrs: nounwind uwtable
define void @ff_ivi_col_slant4(ptr noundef %0, ptr noundef %1, i64 noundef %2, ptr noundef %3) #0 {
  %5 = alloca ptr, align 8
  %6 = alloca ptr, align 8
  %7 = alloca i64, align 8
  %8 = alloca ptr, align 8
  %9 = alloca i32, align 4
  %10 = alloca i32, align 4
  %11 = alloca i32, align 4
  %12 = alloca i32, align 4
  %13 = alloca i32, align 4
  %14 = alloca i32, align 4
  %15 = alloca i32, align 4
  store ptr %0, ptr %5, align 8, !tbaa !40
  store ptr %1, ptr %6, align 8, !tbaa !30
  store i64 %2, ptr %7, align 8, !tbaa !11
  store ptr %3, ptr %8, align 8, !tbaa !9
  call void @llvm.lifetime.start.p0(i64 4, ptr %9) #4
  call void @llvm.lifetime.start.p0(i64 4, ptr %10) #4
  call void @llvm.lifetime.start.p0(i64 4, ptr %11) #4
  call void @llvm.lifetime.start.p0(i64 4, ptr %12) #4
  call void @llvm.lifetime.start.p0(i64 4, ptr %13) #4
  call void @llvm.lifetime.start.p0(i64 4, ptr %14) #4
  call void @llvm.lifetime.start.p0(i64 4, ptr %15) #4
  %16 = load i64, ptr %7, align 8, !tbaa !11
  %17 = shl i64 %16, 1
  %18 = trunc i64 %17 to i32
  store i32 %18, ptr %10, align 4, !tbaa !13
  store i32 0, ptr %9, align 4, !tbaa !13
  br label %19

19:                                               ; preds = %140, %4
  %20 = load i32, ptr %9, align 4, !tbaa !13
  %21 = icmp slt i32 %20, 4
  br i1 %21, label %22, label %143

22:                                               ; preds = %19
  %23 = load ptr, ptr %8, align 8, !tbaa !9
  %24 = load i32, ptr %9, align 4, !tbaa !13
  %25 = sext i32 %24 to i64
  %26 = getelementptr inbounds i8, ptr %23, i64 %25
  %27 = load i8, ptr %26, align 1, !tbaa !34
  %28 = icmp ne i8 %27, 0
  br i1 %28, label %29, label %119

29:                                               ; preds = %22
  %30 = load ptr, ptr %5, align 8, !tbaa !40
  %31 = getelementptr inbounds i32, ptr %30, i64 0
  %32 = load i32, ptr %31, align 4, !tbaa !13
  %33 = load ptr, ptr %5, align 8, !tbaa !40
  %34 = getelementptr inbounds i32, ptr %33, i64 8
  %35 = load i32, ptr %34, align 4, !tbaa !13
  %36 = sub nsw i32 %32, %35
  store i32 %36, ptr %11, align 4, !tbaa !13
  %37 = load ptr, ptr %5, align 8, !tbaa !40
  %38 = getelementptr inbounds i32, ptr %37, i64 0
  %39 = load i32, ptr %38, align 4, !tbaa !13
  %40 = load ptr, ptr %5, align 8, !tbaa !40
  %41 = getelementptr inbounds i32, ptr %40, i64 8
  %42 = load i32, ptr %41, align 4, !tbaa !13
  %43 = add nsw i32 %39, %42
  store i32 %43, ptr %12, align 4, !tbaa !13
  %44 = load i32, ptr %11, align 4, !tbaa !13
  store i32 %44, ptr %13, align 4, !tbaa !13
  %45 = load ptr, ptr %5, align 8, !tbaa !40
  %46 = getelementptr inbounds i32, ptr %45, i64 4
  %47 = load i32, ptr %46, align 4, !tbaa !13
  %48 = load ptr, ptr %5, align 8, !tbaa !40
  %49 = getelementptr inbounds i32, ptr %48, i64 12
  %50 = load i32, ptr %49, align 4, !tbaa !13
  %51 = mul nsw i32 %50, 2
  %52 = add nsw i32 %47, %51
  %53 = add nsw i32 %52, 2
  %54 = ashr i32 %53, 2
  %55 = load ptr, ptr %5, align 8, !tbaa !40
  %56 = getelementptr inbounds i32, ptr %55, i64 4
  %57 = load i32, ptr %56, align 4, !tbaa !13
  %58 = add nsw i32 %54, %57
  store i32 %58, ptr %11, align 4, !tbaa !13
  %59 = load ptr, ptr %5, align 8, !tbaa !40
  %60 = getelementptr inbounds i32, ptr %59, i64 4
  %61 = load i32, ptr %60, align 4, !tbaa !13
  %62 = mul nsw i32 %61, 2
  %63 = load ptr, ptr %5, align 8, !tbaa !40
  %64 = getelementptr inbounds i32, ptr %63, i64 12
  %65 = load i32, ptr %64, align 4, !tbaa !13
  %66 = sub nsw i32 %62, %65
  %67 = add nsw i32 %66, 2
  %68 = ashr i32 %67, 2
  %69 = load ptr, ptr %5, align 8, !tbaa !40
  %70 = getelementptr inbounds i32, ptr %69, i64 12
  %71 = load i32, ptr %70, align 4, !tbaa !13
  %72 = sub nsw i32 %68, %71
  store i32 %72, ptr %14, align 4, !tbaa !13
  %73 = load i32, ptr %11, align 4, !tbaa !13
  store i32 %73, ptr %15, align 4, !tbaa !13
  %74 = load i32, ptr %12, align 4, !tbaa !13
  %75 = load i32, ptr %15, align 4, !tbaa !13
  %76 = sub nsw i32 %74, %75
  store i32 %76, ptr %11, align 4, !tbaa !13
  %77 = load i32, ptr %12, align 4, !tbaa !13
  %78 = load i32, ptr %15, align 4, !tbaa !13
  %79 = add nsw i32 %77, %78
  store i32 %79, ptr %12, align 4, !tbaa !13
  %80 = load i32, ptr %11, align 4, !tbaa !13
  store i32 %80, ptr %15, align 4, !tbaa !13
  %81 = load i32, ptr %13, align 4, !tbaa !13
  %82 = load i32, ptr %14, align 4, !tbaa !13
  %83 = sub nsw i32 %81, %82
  store i32 %83, ptr %11, align 4, !tbaa !13
  %84 = load i32, ptr %13, align 4, !tbaa !13
  %85 = load i32, ptr %14, align 4, !tbaa !13
  %86 = add nsw i32 %84, %85
  store i32 %86, ptr %13, align 4, !tbaa !13
  %87 = load i32, ptr %11, align 4, !tbaa !13
  store i32 %87, ptr %14, align 4, !tbaa !13
  %88 = load i32, ptr %12, align 4, !tbaa !13
  %89 = add nsw i32 %88, 1
  %90 = ashr i32 %89, 1
  %91 = trunc i32 %90 to i16
  %92 = load ptr, ptr %6, align 8, !tbaa !30
  %93 = getelementptr inbounds i16, ptr %92, i64 0
  store i16 %91, ptr %93, align 2, !tbaa !32
  %94 = load i32, ptr %13, align 4, !tbaa !13
  %95 = add nsw i32 %94, 1
  %96 = ashr i32 %95, 1
  %97 = trunc i32 %96 to i16
  %98 = load ptr, ptr %6, align 8, !tbaa !30
  %99 = load i64, ptr %7, align 8, !tbaa !11
  %100 = getelementptr inbounds i16, ptr %98, i64 %99
  store i16 %97, ptr %100, align 2, !tbaa !32
  %101 = load i32, ptr %14, align 4, !tbaa !13
  %102 = add nsw i32 %101, 1
  %103 = ashr i32 %102, 1
  %104 = trunc i32 %103 to i16
  %105 = load ptr, ptr %6, align 8, !tbaa !30
  %106 = load i32, ptr %10, align 4, !tbaa !13
  %107 = sext i32 %106 to i64
  %108 = getelementptr inbounds i16, ptr %105, i64 %107
  store i16 %104, ptr %108, align 2, !tbaa !32
  %109 = load i32, ptr %15, align 4, !tbaa !13
  %110 = add nsw i32 %109, 1
  %111 = ashr i32 %110, 1
  %112 = trunc i32 %111 to i16
  %113 = load ptr, ptr %6, align 8, !tbaa !30
  %114 = load i32, ptr %10, align 4, !tbaa !13
  %115 = sext i32 %114 to i64
  %116 = load i64, ptr %7, align 8, !tbaa !11
  %117 = add nsw i64 %115, %116
  %118 = getelementptr inbounds i16, ptr %113, i64 %117
  store i16 %112, ptr %118, align 2, !tbaa !32
  br label %135

119:                                              ; preds = %22
  %120 = load ptr, ptr %6, align 8, !tbaa !30
  %121 = load i32, ptr %10, align 4, !tbaa !13
  %122 = sext i32 %121 to i64
  %123 = load i64, ptr %7, align 8, !tbaa !11
  %124 = add nsw i64 %122, %123
  %125 = getelementptr inbounds i16, ptr %120, i64 %124
  store i16 0, ptr %125, align 2, !tbaa !32
  %126 = load ptr, ptr %6, align 8, !tbaa !30
  %127 = load i32, ptr %10, align 4, !tbaa !13
  %128 = sext i32 %127 to i64
  %129 = getelementptr inbounds i16, ptr %126, i64 %128
  store i16 0, ptr %129, align 2, !tbaa !32
  %130 = load ptr, ptr %6, align 8, !tbaa !30
  %131 = load i64, ptr %7, align 8, !tbaa !11
  %132 = getelementptr inbounds i16, ptr %130, i64 %131
  store i16 0, ptr %132, align 2, !tbaa !32
  %133 = load ptr, ptr %6, align 8, !tbaa !30
  %134 = getelementptr inbounds i16, ptr %133, i64 0
  store i16 0, ptr %134, align 2, !tbaa !32
  br label %135

135:                                              ; preds = %119, %29
  %136 = load ptr, ptr %5, align 8, !tbaa !40
  %137 = getelementptr inbounds nuw i32, ptr %136, i32 1
  store ptr %137, ptr %5, align 8, !tbaa !40
  %138 = load ptr, ptr %6, align 8, !tbaa !30
  %139 = getelementptr inbounds nuw i16, ptr %138, i32 1
  store ptr %139, ptr %6, align 8, !tbaa !30
  br label %140

140:                                              ; preds = %135
  %141 = load i32, ptr %9, align 4, !tbaa !13
  %142 = add nsw i32 %141, 1
  store i32 %142, ptr %9, align 4, !tbaa !13
  br label %19, !llvm.loop !66

143:                                              ; preds = %19
  call void @llvm.lifetime.end.p0(i64 4, ptr %15) #4
  call void @llvm.lifetime.end.p0(i64 4, ptr %14) #4
  call void @llvm.lifetime.end.p0(i64 4, ptr %13) #4
  call void @llvm.lifetime.end.p0(i64 4, ptr %12) #4
  call void @llvm.lifetime.end.p0(i64 4, ptr %11) #4
  call void @llvm.lifetime.end.p0(i64 4, ptr %10) #4
  call void @llvm.lifetime.end.p0(i64 4, ptr %9) #4
  ret void
}