; Function Attrs: nofree norecurse nosync nounwind memory(argmem: readwrite) uwtable
define void @ff_ivi_col_slant4(ptr noundef readonly captures(none) %0, ptr noundef writeonly captures(none) %1, i64 noundef %2, ptr noundef readonly captures(none) %3) local_unnamed_addr #2 {
  %.tr = trunc i64 %2 to i32
  %5 = shl i32 %.tr, 1
  %6 = sext i32 %5 to i64
  br label %7

7:                                                ; preds = %4, %50
  %indvars.iv = phi i64 [ 0, %4 ], [ %indvars.iv.next, %50 ]
  %.054 = phi ptr [ %0, %4 ], [ %51, %50 ]
  %.04853 = phi ptr [ %1, %4 ], [ %52, %50 ]
  %8 = getelementptr inbounds nuw i8, ptr %3, i64 %indvars.iv
  %9 = load i8, ptr %8, align 1, !tbaa !28
  %.not = icmp eq i8 %9, 0
  br i1 %.not, label %46, label %10

10:                                               ; preds = %7
  %11 = load i32, ptr %.054, align 4, !tbaa !34
  %12 = getelementptr inbounds nuw i8, ptr %.054, i64 32
  %13 = load i32, ptr %12, align 4, !tbaa !34
  %14 = sub nsw i32 %11, %13
  %15 = add nsw i32 %13, %11
  %16 = getelementptr inbounds nuw i8, ptr %.054, i64 16
  %17 = load i32, ptr %16, align 4, !tbaa !34
  %18 = getelementptr inbounds nuw i8, ptr %.054, i64 48
  %19 = load i32, ptr %18, align 4, !tbaa !34
  %20 = shl nsw i32 %19, 1
  %21 = add i32 %17, 2
  %22 = add i32 %21, %20
  %23 = ashr i32 %22, 2
  %24 = add nsw i32 %23, %17
  %25 = shl nsw i32 %17, 1
  %reass.sub = sub i32 %25, %19
  %26 = add i32 %reass.sub, 2
  %27 = ashr i32 %26, 2
  %28 = sub nsw i32 %27, %19
  %29 = add i32 %15, 1
  %30 = add i32 %29, %24
  %31 = lshr i32 %30, 1
  %32 = trunc i32 %31 to i16
  store i16 %32, ptr %.04853, align 2, !tbaa !27
  %33 = add i32 %14, 1
  %34 = add i32 %33, %28
  %35 = lshr i32 %34, 1
  %36 = trunc i32 %35 to i16
  %37 = getelementptr inbounds i16, ptr %.04853, i64 %2
  store i16 %36, ptr %37, align 2, !tbaa !27
  %38 = sub i32 %33, %28
  %39 = lshr i32 %38, 1
  %40 = trunc i32 %39 to i16
  %41 = getelementptr inbounds i16, ptr %.04853, i64 %6
  store i16 %40, ptr %41, align 2, !tbaa !27
  %42 = sub i32 %29, %24
  %43 = lshr i32 %42, 1
  %44 = trunc i32 %43 to i16
  %45 = getelementptr i16, ptr %37, i64 %6
  store i16 %44, ptr %45, align 2, !tbaa !27
  br label %50

46:                                               ; preds = %7
  %47 = getelementptr i16, ptr %.04853, i64 %2
  %48 = getelementptr i16, ptr %47, i64 %6
  store i16 0, ptr %48, align 2, !tbaa !27
  %49 = getelementptr inbounds i16, ptr %.04853, i64 %6
  store i16 0, ptr %49, align 2, !tbaa !27
  store i16 0, ptr %47, align 2, !tbaa !27
  store i16 0, ptr %.04853, align 2, !tbaa !27
  br label %50

50:                                               ; preds = %46, %10
  %51 = getelementptr inbounds nuw i8, ptr %.054, i64 4
  %52 = getelementptr inbounds nuw i8, ptr %.04853, i64 2
  %indvars.iv.next = add nuw nsw i64 %indvars.iv, 1
  %exitcond.not = icmp eq i64 %indvars.iv.next, 4
  br i1 %exitcond.not, label %53, label %7, !llvm.loop !57

53:                                               ; preds = %50
  ret void
}